*** EVALUATION ***
ANSI-C/cC++ Compiler for HC12 V-5.0.41 Build 10203, Jul 23 2010

    1:  #include "defs.h"
    2:  #include "game.h"
    3:  
    4:  // UP     PT5
    5:  // DOWN   PT4
    6:  // LEFT   PT3
    7:  // RIGHT  PT2
    8:  // A      PT1
    9:  // B      PT0
   10:  
   11:  static void (*OC6Func) (void);
   12:  unsigned static char  OC6Enabled;
   13:  unsigned static short OC6Delay;
   14:  unsigned static short OC6DelayCount1;
   15:  unsigned static short OC6DelayCount2;
   16:  unsigned static short OC6Count;
   17:  
   18:  void Key_Init(void){  
*** EVALUATION ***

Function: Key_Init
Source  : C:\Users\Raz\Documents\EE 445L\Battleship =(\Sources\switch.c
Options : -Cc -CPUHCS12 -D_HCS12_SERIALMON -D__NO_FLOAT__ -Env"GENPATH=C:\Users\Raz\Documents\EE 445L\Battleship =(;C:\Users\Raz\Documents\EE 445L\Battleship =(\bin;C:\Users\Raz\Documents\EE 445L\Battleship =(\prm;C:\Users\Raz\Documents\EE 445L\Battleship =(\cmd;C:\Users\Raz\Documents\EE 445L\Battleship =(\Sources;C:\Program Files\Freescale\CWS12v5.1\lib\HC12c\lib;C:\Program Files\Freescale\CWS12v5.1\lib\HC12c\src;C:\Program Files\Freescale\CWS12v5.1\lib\HC12c\include" -Env"LIBPATH=C:\Program Files\Freescale\CWS12v5.1\lib\HC12c\include" -Env"OBJPATH=C:\Users\Raz\Documents\EE 445L\Battleship =(\bin" -Env"TEXTPATH=C:\Users\Raz\Documents\EE 445L\Battleship =(\bin" -Lasm=%n.lst -Ms -ObjN="C:\Users\Raz\Documents\EE 445L\Battleship =(\Battleship_=(_Data\Standard\ObjectCode\switch.c.o" -OnB=b -WmsgSd1106

   19:  asm sei           // make atomic
  0000 1410         [1]     SEI   
   20:    DDRT &= ~0x3F;    // PT7,PT6 all rows are output
  0002 1d00003f     [4]     BCLR  _DDRT,#63
   21:    PERT  =  0x3F;    // internal pullup on PT3,PT2
  0006 cc053f       [2]     LDD   #1343
  0009 7b0000       [3]     STAB  _PERT
   22:    TCTL3 =  0x05;
  000c 5a00         [2]     STAA  _TCTL3
   23:    TCTL4 =  0x55;   // falling edges IC3,IC2
  000e c655         [1]     LDAB  #85
  0010 5b00         [2]     STAB  _TCTL4
   24:    TIOS  =  0xC0;
  0012 c6c0         [1]     LDAB  #192
  0014 5b00         [2]     STAB  _TIOS
   25:    TIE   =  0x3F;     // Arm only IC3,IC2
  0016 51           [1]     COMB  
  0017 5b00         [2]     STAB  _TIE
   26:  asm cli    
  0019 10ef         [1]     CLI   
   27:  }
  001b 3d           [5]     RTS   
   28:  
   29:  void enableOC6(void (*function) (void), unsigned short delay, unsigned short delayCount, unsigned short count) {
*** EVALUATION ***

Function: enableOC6
Source  : C:\Users\Raz\Documents\EE 445L\Battleship =(\Sources\switch.c
Options : -Cc -CPUHCS12 -D_HCS12_SERIALMON -D__NO_FLOAT__ -Env"GENPATH=C:\Users\Raz\Documents\EE 445L\Battleship =(;C:\Users\Raz\Documents\EE 445L\Battleship =(\bin;C:\Users\Raz\Documents\EE 445L\Battleship =(\prm;C:\Users\Raz\Documents\EE 445L\Battleship =(\cmd;C:\Users\Raz\Documents\EE 445L\Battleship =(\Sources;C:\Program Files\Freescale\CWS12v5.1\lib\HC12c\lib;C:\Program Files\Freescale\CWS12v5.1\lib\HC12c\src;C:\Program Files\Freescale\CWS12v5.1\lib\HC12c\include" -Env"LIBPATH=C:\Program Files\Freescale\CWS12v5.1\lib\HC12c\include" -Env"OBJPATH=C:\Users\Raz\Documents\EE 445L\Battleship =(\bin" -Env"TEXTPATH=C:\Users\Raz\Documents\EE 445L\Battleship =(\bin" -Lasm=%n.lst -Ms -ObjN="C:\Users\Raz\Documents\EE 445L\Battleship =(\Battleship_=(_Data\Standard\ObjectCode\switch.c.o" -OnB=b -WmsgSd1106

  0000 3b           [2]     PSHD  
   30:    TIE |= 0x40;
  0001 4c0040       [4]     BSET  _TIE,#64
   31:    OC6Enabled = 1;    
  0004 c601         [1]     LDAB  #1
  0006 7b0000       [3]     STAB  OC6Enabled
   32:    OC6Func = function;
  0009 ec88         [3]     LDD   8,SP
  000b 7c0000       [3]     STD   OC6Func
   33:    OC6Delay = delay;
  000e ec86         [3]     LDD   6,SP
  0010 7c0000       [3]     STD   OC6Delay
   34:    OC6DelayCount1 = delayCount;
  0013 ee84         [3]     LDX   4,SP
  0015 7e0000       [3]     STX   OC6DelayCount1
   35:    OC6DelayCount2 = delayCount;
  0018 7e0000       [3]     STX   OC6DelayCount2
   36:    OC6Count = count;
  001b 30           [3]     PULX  
  001c 7e0000       [3]     STX   OC6Count
   37:    TFLG1 = 0x40;    
  001f 180b400000   [4]     MOVB  #64,_TFLG1
   38:    TC6 = TCNT + OC6Delay;
  0024 d300         [3]     ADDD  _TCNT
  0026 5c00         [2]     STD   _TC6
   39:  }
  0028 3d           [5]     RTS   
   40:  
   41:  void disableOC6(void) {
*** EVALUATION ***

Function: disableOC6
Source  : C:\Users\Raz\Documents\EE 445L\Battleship =(\Sources\switch.c
Options : -Cc -CPUHCS12 -D_HCS12_SERIALMON -D__NO_FLOAT__ -Env"GENPATH=C:\Users\Raz\Documents\EE 445L\Battleship =(;C:\Users\Raz\Documents\EE 445L\Battleship =(\bin;C:\Users\Raz\Documents\EE 445L\Battleship =(\prm;C:\Users\Raz\Documents\EE 445L\Battleship =(\cmd;C:\Users\Raz\Documents\EE 445L\Battleship =(\Sources;C:\Program Files\Freescale\CWS12v5.1\lib\HC12c\lib;C:\Program Files\Freescale\CWS12v5.1\lib\HC12c\src;C:\Program Files\Freescale\CWS12v5.1\lib\HC12c\include" -Env"LIBPATH=C:\Program Files\Freescale\CWS12v5.1\lib\HC12c\include" -Env"OBJPATH=C:\Users\Raz\Documents\EE 445L\Battleship =(\bin" -Env"TEXTPATH=C:\Users\Raz\Documents\EE 445L\Battleship =(\bin" -Lasm=%n.lst -Ms -ObjN="C:\Users\Raz\Documents\EE 445L\Battleship =(\Battleship_=(_Data\Standard\ObjectCode\switch.c.o" -OnB=b -WmsgSd1106

   42:    TIE &= ~0x40;
  0000 4d0040       [4]     BCLR  _TIE,#64
   43:    TFLG1 = 0x40;
  0003 c640         [1]     LDAB  #64
  0005 5b00         [2]     STAB  _TFLG1
   44:  }
  0007 3d           [5]     RTS   
   45:  
   46:  void interrupt 8 IC0Han(void) {                   
*** EVALUATION ***

Function: IC0Han
Source  : C:\Users\Raz\Documents\EE 445L\Battleship =(\Sources\switch.c
Options : -Cc -CPUHCS12 -D_HCS12_SERIALMON -D__NO_FLOAT__ -Env"GENPATH=C:\Users\Raz\Documents\EE 445L\Battleship =(;C:\Users\Raz\Documents\EE 445L\Battleship =(\bin;C:\Users\Raz\Documents\EE 445L\Battleship =(\prm;C:\Users\Raz\Documents\EE 445L\Battleship =(\cmd;C:\Users\Raz\Documents\EE 445L\Battleship =(\Sources;C:\Program Files\Freescale\CWS12v5.1\lib\HC12c\lib;C:\Program Files\Freescale\CWS12v5.1\lib\HC12c\src;C:\Program Files\Freescale\CWS12v5.1\lib\HC12c\include" -Env"LIBPATH=C:\Program Files\Freescale\CWS12v5.1\lib\HC12c\include" -Env"OBJPATH=C:\Users\Raz\Documents\EE 445L\Battleship =(\bin" -Env"TEXTPATH=C:\Users\Raz\Documents\EE 445L\Battleship =(\bin" -Lasm=%n.lst -Ms -ObjN="C:\Users\Raz\Documents\EE 445L\Battleship =(\Battleship_=(_Data\Standard\ObjectCode\switch.c.o" -OnB=b -WmsgSd1106

   47:    TFLG1 = 0x01;
  0000 c601         [1]     LDAB  #1
  0002 5b00         [2]     STAB  _TFLG1
   48:    SW_PTP0; 
  0004 58           [1]     LSLB  
  0005 160000       [4]     JSR   Game_DPad
   49:  }
  0008 0b           [8]     RTI   
   50:  
   51:  void interrupt 9 IC1Han(void) {                 
*** EVALUATION ***

Function: IC1Han
Source  : C:\Users\Raz\Documents\EE 445L\Battleship =(\Sources\switch.c
Options : -Cc -CPUHCS12 -D_HCS12_SERIALMON -D__NO_FLOAT__ -Env"GENPATH=C:\Users\Raz\Documents\EE 445L\Battleship =(;C:\Users\Raz\Documents\EE 445L\Battleship =(\bin;C:\Users\Raz\Documents\EE 445L\Battleship =(\prm;C:\Users\Raz\Documents\EE 445L\Battleship =(\cmd;C:\Users\Raz\Documents\EE 445L\Battleship =(\Sources;C:\Program Files\Freescale\CWS12v5.1\lib\HC12c\lib;C:\Program Files\Freescale\CWS12v5.1\lib\HC12c\src;C:\Program Files\Freescale\CWS12v5.1\lib\HC12c\include" -Env"LIBPATH=C:\Program Files\Freescale\CWS12v5.1\lib\HC12c\include" -Env"OBJPATH=C:\Users\Raz\Documents\EE 445L\Battleship =(\bin" -Env"TEXTPATH=C:\Users\Raz\Documents\EE 445L\Battleship =(\bin" -Lasm=%n.lst -Ms -ObjN="C:\Users\Raz\Documents\EE 445L\Battleship =(\Battleship_=(_Data\Standard\ObjectCode\switch.c.o" -OnB=b -WmsgSd1106

   52:    TFLG1 = 0x02;
  0000 c602         [1]     LDAB  #2
  0002 5b00         [2]     STAB  _TFLG1
   53:    SW_PTP1;
  0004 57           [1]     ASRB  
  0005 160000       [4]     JSR   Game_DPad
   54:  }
  0008 0b           [8]     RTI   
   55:  
   56:  void interrupt 10 IC2Han(void) {
*** EVALUATION ***

Function: IC2Han
Source  : C:\Users\Raz\Documents\EE 445L\Battleship =(\Sources\switch.c
Options : -Cc -CPUHCS12 -D_HCS12_SERIALMON -D__NO_FLOAT__ -Env"GENPATH=C:\Users\Raz\Documents\EE 445L\Battleship =(;C:\Users\Raz\Documents\EE 445L\Battleship =(\bin;C:\Users\Raz\Documents\EE 445L\Battleship =(\prm;C:\Users\Raz\Documents\EE 445L\Battleship =(\cmd;C:\Users\Raz\Documents\EE 445L\Battleship =(\Sources;C:\Program Files\Freescale\CWS12v5.1\lib\HC12c\lib;C:\Program Files\Freescale\CWS12v5.1\lib\HC12c\src;C:\Program Files\Freescale\CWS12v5.1\lib\HC12c\include" -Env"LIBPATH=C:\Program Files\Freescale\CWS12v5.1\lib\HC12c\include" -Env"OBJPATH=C:\Users\Raz\Documents\EE 445L\Battleship =(\bin" -Env"TEXTPATH=C:\Users\Raz\Documents\EE 445L\Battleship =(\bin" -Lasm=%n.lst -Ms -ObjN="C:\Users\Raz\Documents\EE 445L\Battleship =(\Battleship_=(_Data\Standard\ObjectCode\switch.c.o" -OnB=b -WmsgSd1106

   57:    TFLG1 = 0x04;
  0000 c604         [1]     LDAB  #4
  0002 5b00         [2]     STAB  _TFLG1
   58:    SW_PTP2;
  0004 c7           [1]     CLRB  
  0005 160000       [4]     JSR   Game_DPad
   59:  }
  0008 0b           [8]     RTI   
   60:  
   61:  void interrupt 11 IC3Han(void) {
*** EVALUATION ***

Function: IC3Han
Source  : C:\Users\Raz\Documents\EE 445L\Battleship =(\Sources\switch.c
Options : -Cc -CPUHCS12 -D_HCS12_SERIALMON -D__NO_FLOAT__ -Env"GENPATH=C:\Users\Raz\Documents\EE 445L\Battleship =(;C:\Users\Raz\Documents\EE 445L\Battleship =(\bin;C:\Users\Raz\Documents\EE 445L\Battleship =(\prm;C:\Users\Raz\Documents\EE 445L\Battleship =(\cmd;C:\Users\Raz\Documents\EE 445L\Battleship =(\Sources;C:\Program Files\Freescale\CWS12v5.1\lib\HC12c\lib;C:\Program Files\Freescale\CWS12v5.1\lib\HC12c\src;C:\Program Files\Freescale\CWS12v5.1\lib\HC12c\include" -Env"LIBPATH=C:\Program Files\Freescale\CWS12v5.1\lib\HC12c\include" -Env"OBJPATH=C:\Users\Raz\Documents\EE 445L\Battleship =(\bin" -Env"TEXTPATH=C:\Users\Raz\Documents\EE 445L\Battleship =(\bin" -Lasm=%n.lst -Ms -ObjN="C:\Users\Raz\Documents\EE 445L\Battleship =(\Battleship_=(_Data\Standard\ObjectCode\switch.c.o" -OnB=b -WmsgSd1106

   62:    TFLG1 = 0x08;
  0000 c608         [1]     LDAB  #8
  0002 5b00         [2]     STAB  _TFLG1
   63:    SW_PTP3;
  0004 c603         [1]     LDAB  #3
  0006 160000       [4]     JSR   Game_DPad
   64:  }
  0009 0b           [8]     RTI   
   65:  
   66:  void interrupt 12 IC4Han(void) { 
*** EVALUATION ***

Function: IC4Han
Source  : C:\Users\Raz\Documents\EE 445L\Battleship =(\Sources\switch.c
Options : -Cc -CPUHCS12 -D_HCS12_SERIALMON -D__NO_FLOAT__ -Env"GENPATH=C:\Users\Raz\Documents\EE 445L\Battleship =(;C:\Users\Raz\Documents\EE 445L\Battleship =(\bin;C:\Users\Raz\Documents\EE 445L\Battleship =(\prm;C:\Users\Raz\Documents\EE 445L\Battleship =(\cmd;C:\Users\Raz\Documents\EE 445L\Battleship =(\Sources;C:\Program Files\Freescale\CWS12v5.1\lib\HC12c\lib;C:\Program Files\Freescale\CWS12v5.1\lib\HC12c\src;C:\Program Files\Freescale\CWS12v5.1\lib\HC12c\include" -Env"LIBPATH=C:\Program Files\Freescale\CWS12v5.1\lib\HC12c\include" -Env"OBJPATH=C:\Users\Raz\Documents\EE 445L\Battleship =(\bin" -Env"TEXTPATH=C:\Users\Raz\Documents\EE 445L\Battleship =(\bin" -Lasm=%n.lst -Ms -ObjN="C:\Users\Raz\Documents\EE 445L\Battleship =(\Battleship_=(_Data\Standard\ObjectCode\switch.c.o" -OnB=b -WmsgSd1106

   67:    TFLG1 = 0x10;
  0000 c610         [1]     LDAB  #16
  0002 5b00         [2]     STAB  _TFLG1
   68:    SW_PTP4;
  0004 160000       [4]     JSR   Game_B
   69:  }
  0007 0b           [8]     RTI   
   70:  
   71:  void interrupt 13 IC5Han(void){
*** EVALUATION ***

Function: IC5Han
Source  : C:\Users\Raz\Documents\EE 445L\Battleship =(\Sources\switch.c
Options : -Cc -CPUHCS12 -D_HCS12_SERIALMON -D__NO_FLOAT__ -Env"GENPATH=C:\Users\Raz\Documents\EE 445L\Battleship =(;C:\Users\Raz\Documents\EE 445L\Battleship =(\bin;C:\Users\Raz\Documents\EE 445L\Battleship =(\prm;C:\Users\Raz\Documents\EE 445L\Battleship =(\cmd;C:\Users\Raz\Documents\EE 445L\Battleship =(\Sources;C:\Program Files\Freescale\CWS12v5.1\lib\HC12c\lib;C:\Program Files\Freescale\CWS12v5.1\lib\HC12c\src;C:\Program Files\Freescale\CWS12v5.1\lib\HC12c\include" -Env"LIBPATH=C:\Program Files\Freescale\CWS12v5.1\lib\HC12c\include" -Env"OBJPATH=C:\Users\Raz\Documents\EE 445L\Battleship =(\bin" -Env"TEXTPATH=C:\Users\Raz\Documents\EE 445L\Battleship =(\bin" -Lasm=%n.lst -Ms -ObjN="C:\Users\Raz\Documents\EE 445L\Battleship =(\Battleship_=(_Data\Standard\ObjectCode\switch.c.o" -OnB=b -WmsgSd1106

   72:    TFLG1 = 0x20;
  0000 c620         [1]     LDAB  #32
  0002 5b00         [2]     STAB  _TFLG1
   73:    SW_PTP5;
  0004 160000       [4]     JSR   Game_A
   74:  }
  0007 0b           [8]     RTI   
   75:  
   76:  void interrupt 14 OC6Han(void){
*** EVALUATION ***

Function: OC6Han
Source  : C:\Users\Raz\Documents\EE 445L\Battleship =(\Sources\switch.c
Options : -Cc -CPUHCS12 -D_HCS12_SERIALMON -D__NO_FLOAT__ -Env"GENPATH=C:\Users\Raz\Documents\EE 445L\Battleship =(;C:\Users\Raz\Documents\EE 445L\Battleship =(\bin;C:\Users\Raz\Documents\EE 445L\Battleship =(\prm;C:\Users\Raz\Documents\EE 445L\Battleship =(\cmd;C:\Users\Raz\Documents\EE 445L\Battleship =(\Sources;C:\Program Files\Freescale\CWS12v5.1\lib\HC12c\lib;C:\Program Files\Freescale\CWS12v5.1\lib\HC12c\src;C:\Program Files\Freescale\CWS12v5.1\lib\HC12c\include" -Env"LIBPATH=C:\Program Files\Freescale\CWS12v5.1\lib\HC12c\include" -Env"OBJPATH=C:\Users\Raz\Documents\EE 445L\Battleship =(\bin" -Env"TEXTPATH=C:\Users\Raz\Documents\EE 445L\Battleship =(\bin" -Lasm=%n.lst -Ms -ObjN="C:\Users\Raz\Documents\EE 445L\Battleship =(\Battleship_=(_Data\Standard\ObjectCode\switch.c.o" -OnB=b -WmsgSd1106

   77:    TFLG1 = 0x40;
  0000 c640         [1]     LDAB  #64
  0002 5b00         [2]     STAB  _TFLG1
   78:    if(!OC6DelayCount2) {
  0004 fe0000       [3]     LDX   OC6DelayCount2
  0007 2618         [3/1]   BNE   *+26 ;abs = 0021
   79:      OC6DelayCount2 = OC6DelayCount1;
  0009 fc0000       [3]     LDD   OC6DelayCount1
  000c 7c0000       [3]     STD   OC6DelayCount2
   80:      (*OC6Func)();
  000f 15fb0000     [7]     JSR   [OC6Func,PCR]
   81:      OC6Count--;
  0013 fe0000       [3]     LDX   OC6Count
  0016 09           [1]     DEX   
  0017 7e0000       [3]     STX   OC6Count
   82:      if(!OC6Count) {
  001a 2609         [3/1]   BNE   *+11 ;abs = 0025
   83:        disableOC6();
  001c 160000       [4]     JSR   disableOC6
   84:      }
   85:    }
  001f 2004         [3]     BRA   *+6 ;abs = 0025
   86:    else {
   87:      OC6DelayCount2--;  
  0021 09           [1]     DEX   
  0022 7e0000       [3]     STX   OC6DelayCount2
   88:    }
   89:    
   90:    TC6 = TCNT + OC6Delay;
  0025 dc00         [3]     LDD   _TCNT
  0027 f30000       [3]     ADDD  OC6Delay
  002a 5c00         [2]     STD   _TC6
   91:  }
  002c 0b           [8]     RTI   
